; Function Attrs: mustprogress uwtable
define noundef ptr @_ZNK6icu_7714HebrewCalendar20getTemporalMonthCodeER10UErrorCode(ptr noundef nonnull align 8 dereferenceable(192) %0, ptr noundef nonnull align 4 dereferenceable(4) %1) unnamed_addr #0 align 2 {
  %3 = tail call noundef i32 @_ZNK6icu_778Calendar3getE19UCalendarDateFieldsR10UErrorCode(ptr noundef nonnull align 8 dereferenceable(192) %0, i32 noundef 2, ptr noundef nonnull align 4 dereferenceable(4) %1)
  %4 = load i32, ptr %1, align 4, !tbaa !6
  %5 = icmp slt i32 %4, 1
  br i1 %5, label %6, label %10

6:                                                ; preds = %2
  %7 = sext i32 %3 to i64
  %8 = getelementptr inbounds [14 x ptr], ptr @_ZN6icu_77L28gTemporalMonthCodesForHebrewE, i64 0, i64 %7
  %9 = load ptr, ptr %8, align 8, !tbaa !25
  br label %10

10:                                               ; preds = %2, %6
  %.0 = phi ptr [ %9, %6 ], [ null, %2 ]
  ret ptr %.0
}